; Function Attrs: mustprogress uwtable
define hidden noundef zeroext i1 @_ZN5osgeo4proj14DiskChunkCache12move_to_tailEx(ptr noundef nonnull readonly align 8 captures(none) dereferenceable(56) %0, i64 noundef %1) local_unnamed_addr #3 align 2 personality ptr @__gxx_personality_v0 {
  %3 = alloca i64, align 8
  %4 = alloca i64, align 8
  %5 = alloca i64, align 8
  %6 = alloca i64, align 8
  %7 = alloca i64, align 8
  %8 = alloca %"class.std::unique_ptr.48", align 8
  call void @llvm.lifetime.start.p0(i64 8, ptr nonnull %3) #30
  store i64 0, ptr %3, align 8, !tbaa !95
  call void @llvm.lifetime.start.p0(i64 8, ptr nonnull %4) #30
  store i64 0, ptr %4, align 8, !tbaa !95
  call void @llvm.lifetime.start.p0(i64 8, ptr nonnull %5) #30
  store i64 0, ptr %5, align 8, !tbaa !95
  call void @llvm.lifetime.start.p0(i64 8, ptr nonnull %6) #30
  store i64 0, ptr %6, align 8, !tbaa !95
  call void @llvm.lifetime.start.p0(i64 8, ptr nonnull %7) #30
  store i64 0, ptr %7, align 8, !tbaa !95
  %9 = call noundef zeroext i1 @_ZN5osgeo4proj14DiskChunkCache9get_linksExRxS2_S2_S2_S2_(ptr noundef nonnull align 8 dereferenceable(56) %0, i64 noundef %1, ptr noundef nonnull align 8 dereferenceable(8) %3, ptr noundef nonnull align 8 dereferenceable(8) %4, ptr noundef nonnull align 8 dereferenceable(8) %5, ptr noundef nonnull align 8 dereferenceable(8) %6, ptr noundef nonnull align 8 dereferenceable(8) %7)
  br i1 %9, label %10, label %56

10:                                               ; preds = %2
  %11 = load i64, ptr %3, align 8, !tbaa !95
  %12 = load i64, ptr %7, align 8, !tbaa !95
  %13 = icmp eq i64 %11, %12
  br i1 %13, label %56, label %14

14:                                               ; preds = %10
  %15 = load i64, ptr %4, align 8, !tbaa !95
  %16 = load i64, ptr %5, align 8, !tbaa !95
  %17 = tail call noundef zeroext i1 @_ZN5osgeo4proj14DiskChunkCache35update_links_of_prev_and_next_linksExx(ptr noundef nonnull align 8 dereferenceable(56) %0, i64 noundef %15, i64 noundef %16)
  br i1 %17, label %18, label %56

18:                                               ; preds = %14
  %.not = icmp eq i64 %12, 0
  br i1 %.not, label %49, label %19

19:                                               ; preds = %18
  call void @llvm.lifetime.start.p0(i64 8, ptr nonnull %8) #30
  call void @_ZN5osgeo4proj14DiskChunkCache7prepareEPKc(ptr dead_on_unwind nonnull writable sret(%"class.std::unique_ptr.48") align 8 %8, ptr noundef nonnull align 8 dereferenceable(56) %0, ptr noundef nonnull @.str.34)
  %20 = load ptr, ptr %8, align 8, !tbaa !81
  %.not15 = icmp eq ptr %20, null
  br i1 %.not15, label %_ZNSt10unique_ptrIN5osgeo4proj15SQLiteStatementESt14default_deleteIS2_EED2Ev.exit, label %21

21:                                               ; preds = %19
  %22 = load ptr, ptr %20, align 8, !tbaa !83
  %23 = getelementptr inbounds nuw i8, ptr %20, i64 8
  %24 = load i32, ptr %23, align 8, !tbaa !97
  %25 = invoke i32 @sqlite3_bind_int64(ptr noundef %22, i32 noundef %24, i64 noundef %11)
          to label %26 unwind label %43

26:                                               ; preds = %21
  %27 = load i32, ptr %23, align 8, !tbaa !97
  %28 = add nsw i32 %27, 1
  store i32 %28, ptr %23, align 8, !tbaa !97
  %29 = load ptr, ptr %20, align 8, !tbaa !83
  %30 = invoke i32 @sqlite3_bind_int64(ptr noundef %29, i32 noundef %28, i64 noundef %12)
          to label %31 unwind label %43

31:                                               ; preds = %26
  %32 = load i32, ptr %23, align 8, !tbaa !97
  %33 = add nsw i32 %32, 1
  store i32 %33, ptr %23, align 8, !tbaa !97
  %34 = load ptr, ptr %8, align 8, !tbaa !81
  %35 = load ptr, ptr %34, align 8, !tbaa !83
  %36 = invoke noundef i32 @sqlite3_step(ptr noundef %35)
          to label %_ZN5osgeo4proj15SQLiteStatement7executeEv.exit unwind label %45

_ZN5osgeo4proj15SQLiteStatement7executeEv.exit:   ; preds = %31
  %.not10 = icmp eq i32 %36, 101
  br i1 %.not10, label %.critedge13, label %37

37:                                               ; preds = %_ZN5osgeo4proj15SQLiteStatement7executeEv.exit
  %38 = load ptr, ptr %0, align 8, !tbaa !58
  %39 = getelementptr inbounds nuw i8, ptr %0, i64 40
  %40 = load ptr, ptr %39, align 8, !tbaa !77
  %41 = invoke ptr @sqlite3_errmsg(ptr noundef %40)
          to label %42 unwind label %45

42:                                               ; preds = %37
  invoke void (ptr, i32, ptr, ...) @_Z6pj_logP6pj_ctxiPKcz(ptr noundef %38, i32 noundef 1, ptr noundef nonnull @.str.3, ptr noundef %41)
          to label %47 unwind label %45

43:                                               ; preds = %26, %21
  %44 = landingpad { ptr, i32 }
          cleanup
  br label %48

45:                                               ; preds = %31, %42, %37
  %46 = landingpad { ptr, i32 }
          cleanup
  br label %48

47:                                               ; preds = %42
  call void @_ZNSt10unique_ptrIN5osgeo4proj15SQLiteStatementESt14default_deleteIS2_EED2Ev(ptr noundef nonnull align 8 dereferenceable(8) %8) #30
  call void @llvm.lifetime.end.p0(i64 8, ptr nonnull %8) #30
  br label %56

48:                                               ; preds = %45, %43
  %.pn = phi { ptr, i32 } [ %46, %45 ], [ %44, %43 ]
  call void @_ZNSt10unique_ptrIN5osgeo4proj15SQLiteStatementESt14default_deleteIS2_EED2Ev(ptr noundef nonnull align 8 dereferenceable(8) %8) #30
  call void @llvm.lifetime.end.p0(i64 8, ptr nonnull %8) #30
  call void @llvm.lifetime.end.p0(i64 8, ptr nonnull %7) #30
  call void @llvm.lifetime.end.p0(i64 8, ptr nonnull %6) #30
  call void @llvm.lifetime.end.p0(i64 8, ptr nonnull %5) #30
  call void @llvm.lifetime.end.p0(i64 8, ptr nonnull %4) #30
  call void @llvm.lifetime.end.p0(i64 8, ptr nonnull %3) #30
  resume { ptr, i32 } %.pn

.critedge13:                                      ; preds = %_ZN5osgeo4proj15SQLiteStatement7executeEv.exit
  call void @_ZNSt10unique_ptrIN5osgeo4proj15SQLiteStatementESt14default_deleteIS2_EED2Ev(ptr noundef nonnull align 8 dereferenceable(8) %8) #30
  call void @llvm.lifetime.end.p0(i64 8, ptr nonnull %8) #30
  br label %49

49:                                               ; preds = %.critedge13, %18
  %50 = call noundef zeroext i1 @_ZN5osgeo4proj14DiskChunkCache20update_linked_chunksExxx(ptr noundef nonnull align 8 dereferenceable(56) %0, i64 noundef %11, i64 noundef %12, i64 noundef 0)
  br i1 %50, label %51, label %56

51:                                               ; preds = %49
  %52 = load i64, ptr %6, align 8, !tbaa !95
  %53 = icmp eq i64 %11, %52
  %54 = select i1 %53, i64 %16, i64 %52
  %55 = call noundef zeroext i1 @_ZN5osgeo4proj14DiskChunkCache30update_linked_chunks_head_tailExx(ptr noundef nonnull align 8 dereferenceable(56) %0, i64 noundef %54, i64 noundef %11)
  br label %56

_ZNSt10unique_ptrIN5osgeo4proj15SQLiteStatementESt14default_deleteIS2_EED2Ev.exit: ; preds = %19
  call void @llvm.lifetime.end.p0(i64 8, ptr nonnull %8) #30
  br label %56

56:                                               ; preds = %47, %49, %51, %_ZNSt10unique_ptrIN5osgeo4proj15SQLiteStatementESt14default_deleteIS2_EED2Ev.exit, %14, %10, %2
  %.0 = phi i1 [ false, %47 ], [ false, %2 ], [ true, %10 ], [ false, %14 ], [ false, %_ZNSt10unique_ptrIN5osgeo4proj15SQLiteStatementESt14default_deleteIS2_EED2Ev.exit ], [ false, %49 ], [ %55, %51 ]
  call void @llvm.lifetime.end.p0(i64 8, ptr nonnull %7) #30
  call void @llvm.lifetime.end.p0(i64 8, ptr nonnull %6) #30
  call void @llvm.lifetime.end.p0(i64 8, ptr nonnull %5) #30
  call void @llvm.lifetime.end.p0(i64 8, ptr nonnull %4) #30
  call void @llvm.lifetime.end.p0(i64 8, ptr nonnull %3) #30
  ret i1 %.0
}